; Function Attrs: nounwind uwtable
define dso_local void @js_std_dump_error(ptr noundef %0) local_unnamed_addr #0 {
  %2 = tail call { i64, i64 } @JS_GetException(ptr noundef %0) #29
  %3 = extractvalue { i64, i64 } %2, 0
  %4 = extractvalue { i64, i64 } %2, 1
  tail call fastcc void @js_std_dump_error1(ptr noundef %0, i64 %3, i64 %4)
  %5 = trunc i64 %4 to i32
  %6 = icmp ugt i32 %5, -12
  br i1 %6, label %7, label %JS_FreeValue.exit

7:                                                ; preds = %1
  %8 = inttoptr i64 %3 to ptr
  %9 = load i32, ptr %8, align 4
  %10 = add i32 %9, -1
  store i32 %10, ptr %8, align 4
  %11 = icmp slt i32 %10, 1
  br i1 %11, label %12, label %JS_FreeValue.exit

12:                                               ; preds = %7
  tail call void @__JS_FreeValue(ptr noundef %0, i64 %3, i64 %4) #29
  br label %JS_FreeValue.exit

JS_FreeValue.exit:                                ; preds = %1, %7, %12
  ret void
}